target datalayout = "e-m:e-p270:32:32-p271:32:32-p272:64:64-i64:64-i128:128-f80:128-n8:16:32:64-S128"
target triple = "x86_64-pc-linux-gnu"

%struct.mbedtls_sha1_context = type { [2 x i32], [5 x i32], [64 x i8] }

; Function Attrs: nounwind uwtable
define hidden void @mbedtls_sha1_free(ptr noundef %0) #0 {
  %2 = alloca ptr, align 8
  store ptr %0, ptr %2, align 8, !tbaa !3
  %3 = load ptr, ptr %2, align 8, !tbaa !3
  %4 = icmp eq ptr %3, null
  br i1 %4, label %5, label %6

5:                                                ; preds = %1
  br label %8

6:                                                ; preds = %1
  %7 = load ptr, ptr %2, align 8, !tbaa !3
  call void @mbedtls_platform_zeroize(ptr noundef %7, i64 noundef 92)
  br label %8

8:                                                ; preds = %6, %5
  ret void
}

; Function Attrs: alwaysinline nounwind uwtable
define internal void @mbedtls_put_unaligned_uint32(ptr noundef %0, i32 noundef %1) #5 {
  %3 = alloca ptr, align 8
  %4 = alloca i32, align 4
  store ptr %0, ptr %3, align 8, !tbaa !21
  store i32 %1, ptr %4, align 4, !tbaa !10
  %5 = load ptr, ptr %3, align 8, !tbaa !21
  call void @llvm.memcpy.p0.p0.i64(ptr align 1 %5, ptr align 4 %4, i64 4, i1 false)
  ret void
}

; Function Attrs: nounwind uwtable
define hidden i32 @mbedtls_sha1_finish(ptr noundef %0, ptr noundef %1) #0 {
  %3 = alloca ptr, align 8
  %4 = alloca ptr, align 8
  %5 = alloca i32, align 4
  %6 = alloca i32, align 4
  %7 = alloca i32, align 4
  %8 = alloca i32, align 4
  store ptr %0, ptr %3, align 8, !tbaa !3
  store ptr %1, ptr %4, align 8, !tbaa !12
  call void @llvm.lifetime.start.p0(i64 4, ptr %5) #8
  store i32 -110, ptr %5, align 4, !tbaa !10
  call void @llvm.lifetime.start.p0(i64 4, ptr %6) #8
  call void @llvm.lifetime.start.p0(i64 4, ptr %7) #8
  call void @llvm.lifetime.start.p0(i64 4, ptr %8) #8
  %9 = load ptr, ptr %3, align 8, !tbaa !3
  %10 = getelementptr inbounds nuw %struct.mbedtls_sha1_context, ptr %9, i32 0, i32 0
  %11 = getelementptr inbounds [2 x i32], ptr %10, i64 0, i64 0
  %12 = load i32, ptr %11, align 4, !tbaa !10
  %13 = and i32 %12, 63
  store i32 %13, ptr %6, align 4, !tbaa !10
  %14 = load ptr, ptr %3, align 8, !tbaa !3
  %15 = getelementptr inbounds nuw %struct.mbedtls_sha1_context, ptr %14, i32 0, i32 2
  %16 = load i32, ptr %6, align 4, !tbaa !10
  %17 = add i32 %16, 1
  store i32 %17, ptr %6, align 4, !tbaa !10
  %18 = zext i32 %16 to i64
  %19 = getelementptr inbounds nuw [64 x i8], ptr %15, i64 0, i64 %18
  store i8 -128, ptr %19, align 1, !tbaa !9
  %20 = load i32, ptr %6, align 4, !tbaa !10
  %21 = icmp ule i32 %20, 56
  br i1 %21, label %22, label %32

22:                                               ; preds = %2
  %23 = load ptr, ptr %3, align 8, !tbaa !3
  %24 = getelementptr inbounds nuw %struct.mbedtls_sha1_context, ptr %23, i32 0, i32 2
  %25 = getelementptr inbounds [64 x i8], ptr %24, i64 0, i64 0
  %26 = load i32, ptr %6, align 4, !tbaa !10
  %27 = zext i32 %26 to i64
  %28 = getelementptr inbounds nuw i8, ptr %25, i64 %27
  %29 = load i32, ptr %6, align 4, !tbaa !10
  %30 = sub i32 56, %29
  %31 = zext i32 %30 to i64
  call void @llvm.memset.p0.i64(ptr align 1 %28, i8 0, i64 %31, i1 false)
  br label %53

32:                                               ; preds = %2
  %33 = load ptr, ptr %3, align 8, !tbaa !3
  %34 = getelementptr inbounds nuw %struct.mbedtls_sha1_context, ptr %33, i32 0, i32 2
  %35 = getelementptr inbounds [64 x i8], ptr %34, i64 0, i64 0
  %36 = load i32, ptr %6, align 4, !tbaa !10
  %37 = zext i32 %36 to i64
  %38 = getelementptr inbounds nuw i8, ptr %35, i64 %37
  %39 = load i32, ptr %6, align 4, !tbaa !10
  %40 = sub i32 64, %39
  %41 = zext i32 %40 to i64
  call void @llvm.memset.p0.i64(ptr align 1 %38, i8 0, i64 %41, i1 false)
  %42 = load ptr, ptr %3, align 8, !tbaa !3
  %43 = load ptr, ptr %3, align 8, !tbaa !3
  %44 = getelementptr inbounds nuw %struct.mbedtls_sha1_context, ptr %43, i32 0, i32 2
  %45 = getelementptr inbounds [64 x i8], ptr %44, i64 0, i64 0
  %46 = call i32 @mbedtls_internal_sha1_process(ptr noundef %42, ptr noundef %45)
  store i32 %46, ptr %5, align 4, !tbaa !10
  %47 = icmp ne i32 %46, 0
  br i1 %47, label %48, label %49

48:                                               ; preds = %32
  br label %125

49:                                               ; preds = %32
  %50 = load ptr, ptr %3, align 8, !tbaa !3
  %51 = getelementptr inbounds nuw %struct.mbedtls_sha1_context, ptr %50, i32 0, i32 2
  %52 = getelementptr inbounds [64 x i8], ptr %51, i64 0, i64 0
  call void @llvm.memset.p0.i64(ptr align 4 %52, i8 0, i64 56, i1 false)
  br label %53

53:                                               ; preds = %49, %22
  %54 = load ptr, ptr %3, align 8, !tbaa !3
  %55 = getelementptr inbounds nuw %struct.mbedtls_sha1_context, ptr %54, i32 0, i32 0
  %56 = getelementptr inbounds [2 x i32], ptr %55, i64 0, i64 0
  %57 = load i32, ptr %56, align 4, !tbaa !10
  %58 = lshr i32 %57, 29
  %59 = load ptr, ptr %3, align 8, !tbaa !3
  %60 = getelementptr inbounds nuw %struct.mbedtls_sha1_context, ptr %59, i32 0, i32 0
  %61 = getelementptr inbounds [2 x i32], ptr %60, i64 0, i64 1
  %62 = load i32, ptr %61, align 4, !tbaa !10
  %63 = shl i32 %62, 3
  %64 = or i32 %58, %63
  store i32 %64, ptr %7, align 4, !tbaa !10
  %65 = load ptr, ptr %3, align 8, !tbaa !3
  %66 = getelementptr inbounds nuw %struct.mbedtls_sha1_context, ptr %65, i32 0, i32 0
  %67 = getelementptr inbounds [2 x i32], ptr %66, i64 0, i64 0
  %68 = load i32, ptr %67, align 4, !tbaa !10
  %69 = shl i32 %68, 3
  store i32 %69, ptr %8, align 4, !tbaa !10
  %70 = load ptr, ptr %3, align 8, !tbaa !3
  %71 = getelementptr inbounds nuw %struct.mbedtls_sha1_context, ptr %70, i32 0, i32 2
  %72 = getelementptr inbounds [64 x i8], ptr %71, i64 0, i64 0
  %73 = getelementptr inbounds i8, ptr %72, i64 56
  %74 = load i32, ptr %7, align 4, !tbaa !10
  %75 = call i32 @llvm.bswap.i32(i32 %74)
  call void @mbedtls_put_unaligned_uint32(ptr noundef %73, i32 noundef %75)
  %76 = load ptr, ptr %3, align 8, !tbaa !3
  %77 = getelementptr inbounds nuw %struct.mbedtls_sha1_context, ptr %76, i32 0, i32 2
  %78 = getelementptr inbounds [64 x i8], ptr %77, i64 0, i64 0
  %79 = getelementptr inbounds i8, ptr %78, i64 60
  %80 = load i32, ptr %8, align 4, !tbaa !10
  %81 = call i32 @llvm.bswap.i32(i32 %80)
  call void @mbedtls_put_unaligned_uint32(ptr noundef %79, i32 noundef %81)
  %82 = load ptr, ptr %3, align 8, !tbaa !3
  %83 = load ptr, ptr %3, align 8, !tbaa !3
  %84 = getelementptr inbounds nuw %struct.mbedtls_sha1_context, ptr %83, i32 0, i32 2
  %85 = getelementptr inbounds [64 x i8], ptr %84, i64 0, i64 0
  %86 = call i32 @mbedtls_internal_sha1_process(ptr noundef %82, ptr noundef %85)
  store i32 %86, ptr %5, align 4, !tbaa !10
  %87 = icmp ne i32 %86, 0
  br i1 %87, label %88, label %89

88:                                               ; preds = %53
  br label %125

89:                                               ; preds = %53
  %90 = load ptr, ptr %4, align 8, !tbaa !12
  %91 = getelementptr inbounds i8, ptr %90, i64 0
  %92 = load ptr, ptr %3, align 8, !tbaa !3
  %93 = getelementptr inbounds nuw %struct.mbedtls_sha1_context, ptr %92, i32 0, i32 1
  %94 = getelementptr inbounds [5 x i32], ptr %93, i64 0, i64 0
  %95 = load i32, ptr %94, align 4, !tbaa !10
  %96 = call i32 @llvm.bswap.i32(i32 %95)
  call void @mbedtls_put_unaligned_uint32(ptr noundef %91, i32 noundef %96)
  %97 = load ptr, ptr %4, align 8, !tbaa !12
  %98 = getelementptr inbounds i8, ptr %97, i64 4
  %99 = load ptr, ptr %3, align 8, !tbaa !3
  %100 = getelementptr inbounds nuw %struct.mbedtls_sha1_context, ptr %99, i32 0, i32 1
  %101 = getelementptr inbounds [5 x i32], ptr %100, i64 0, i64 1
  %102 = load i32, ptr %101, align 4, !tbaa !10
  %103 = call i32 @llvm.bswap.i32(i32 %102)
  call void @mbedtls_put_unaligned_uint32(ptr noundef %98, i32 noundef %103)
  %104 = load ptr, ptr %4, align 8, !tbaa !12
  %105 = getelementptr inbounds i8, ptr %104, i64 8
  %106 = load ptr, ptr %3, align 8, !tbaa !3
  %107 = getelementptr inbounds nuw %struct.mbedtls_sha1_context, ptr %106, i32 0, i32 1
  %108 = getelementptr inbounds [5 x i32], ptr %107, i64 0, i64 2
  %109 = load i32, ptr %108, align 4, !tbaa !10
  %110 = call i32 @llvm.bswap.i32(i32 %109)
  call void @mbedtls_put_unaligned_uint32(ptr noundef %105, i32 noundef %110)
  %111 = load ptr, ptr %4, align 8, !tbaa !12
  %112 = getelementptr inbounds i8, ptr %111, i64 12
  %113 = load ptr, ptr %3, align 8, !tbaa !3
  %114 = getelementptr inbounds nuw %struct.mbedtls_sha1_context, ptr %113, i32 0, i32 1
  %115 = getelementptr inbounds [5 x i32], ptr %114, i64 0, i64 3
  %116 = load i32, ptr %115, align 4, !tbaa !10
  %117 = call i32 @llvm.bswap.i32(i32 %116)
  call void @mbedtls_put_unaligned_uint32(ptr noundef %112, i32 noundef %117)
  %118 = load ptr, ptr %4, align 8, !tbaa !12
  %119 = getelementptr inbounds i8, ptr %118, i64 16
  %120 = load ptr, ptr %3, align 8, !tbaa !3
  %121 = getelementptr inbounds nuw %struct.mbedtls_sha1_context, ptr %120, i32 0, i32 1
  %122 = getelementptr inbounds [5 x i32], ptr %121, i64 0, i64 4
  %123 = load i32, ptr %122, align 4, !tbaa !10
  %124 = call i32 @llvm.bswap.i32(i32 %123)
  call void @mbedtls_put_unaligned_uint32(ptr noundef %119, i32 noundef %124)
  store i32 0, ptr %5, align 4, !tbaa !10
  br label %125

125:                                              ; preds = %89, %88, %48
  %126 = load ptr, ptr %3, align 8, !tbaa !3
  call void @mbedtls_sha1_free(ptr noundef %126)
  %127 = load i32, ptr %5, align 4, !tbaa !10
  call void @llvm.lifetime.end.p0(i64 4, ptr %8) #8
  call void @llvm.lifetime.end.p0(i64 4, ptr %7) #8
  call void @llvm.lifetime.end.p0(i64 4, ptr %6) #8
  call void @llvm.lifetime.end.p0(i64 4, ptr %5) #8
  ret i32 %127
}