; Function Attrs: nounwind uwtable
define hidden noundef i32 @mbedtls_sha1_finish(ptr noundef %0, ptr noundef writeonly captures(none) initializes((0, 20)) %1) local_unnamed_addr #2 {
  %3 = load i32, ptr %0, align 4, !tbaa !7
  %4 = and i32 %3, 63
  %5 = getelementptr inbounds nuw i8, ptr %0, i64 28
  %6 = zext nneg i32 %4 to i64
  %7 = getelementptr inbounds nuw [64 x i8], ptr %5, i64 0, i64 %6
  store i8 -128, ptr %7, align 1, !tbaa !4
  %8 = icmp samesign ult i32 %4, 56
  %9 = zext nneg i32 %4 to i64
  %10 = getelementptr inbounds nuw i8, ptr %5, i64 %9
  %11 = getelementptr inbounds nuw i8, ptr %10, i64 1
  br i1 %8, label %12, label %15

12:                                               ; preds = %2
  %13 = sub nuw nsw i32 55, %4
  %14 = zext nneg i32 %13 to i64
  tail call void @llvm.memset.p0.i64(ptr nonnull align 1 %11, i8 0, i64 %14, i1 false)
  br label %mbedtls_sha1_free.exit

15:                                               ; preds = %2
  %16 = xor i32 %4, 63
  %17 = zext nneg i32 %16 to i64
  tail call void @llvm.memset.p0.i64(ptr nonnull align 1 %11, i8 0, i64 %17, i1 false)
  %18 = tail call i32 @mbedtls_internal_sha1_process(ptr noundef nonnull %0, ptr noundef nonnull %5)
  tail call void @llvm.memset.p0.i64(ptr noundef nonnull align 4 dereferenceable(56) %5, i8 0, i64 56, i1 false)
  %.pre = load i32, ptr %0, align 4, !tbaa !7
  br label %mbedtls_sha1_free.exit

mbedtls_sha1_free.exit:                           ; preds = %15, %12
  %19 = phi i32 [ %.pre, %15 ], [ %3, %12 ]
  %20 = getelementptr inbounds nuw i8, ptr %0, i64 4
  %21 = load i32, ptr %20, align 4, !tbaa !7
  %22 = tail call i32 @llvm.fshl.i32(i32 %21, i32 %19, i32 3)
  %23 = shl i32 %19, 3
  %24 = getelementptr inbounds nuw i8, ptr %0, i64 84
  %25 = tail call i32 @llvm.bswap.i32(i32 %22)
  store i32 %25, ptr %24, align 1
  %26 = getelementptr inbounds nuw i8, ptr %0, i64 88
  %27 = tail call i32 @llvm.bswap.i32(i32 %23)
  store i32 %27, ptr %26, align 1
  %28 = tail call i32 @mbedtls_internal_sha1_process(ptr noundef nonnull %0, ptr noundef nonnull %5)
  %29 = getelementptr inbounds nuw i8, ptr %0, i64 8
  %30 = load i32, ptr %29, align 4, !tbaa !7
  %31 = tail call i32 @llvm.bswap.i32(i32 %30)
  store i32 %31, ptr %1, align 1
  %32 = getelementptr inbounds nuw i8, ptr %1, i64 4
  %33 = getelementptr inbounds nuw i8, ptr %0, i64 12
  %34 = load i32, ptr %33, align 4, !tbaa !7
  %35 = tail call i32 @llvm.bswap.i32(i32 %34)
  store i32 %35, ptr %32, align 1
  %36 = getelementptr inbounds nuw i8, ptr %1, i64 8
  %37 = getelementptr inbounds nuw i8, ptr %0, i64 16
  %38 = load i32, ptr %37, align 4, !tbaa !7
  %39 = tail call i32 @llvm.bswap.i32(i32 %38)
  store i32 %39, ptr %36, align 1
  %40 = getelementptr inbounds nuw i8, ptr %1, i64 12
  %41 = getelementptr inbounds nuw i8, ptr %0, i64 20
  %42 = load i32, ptr %41, align 4, !tbaa !7
  %43 = tail call i32 @llvm.bswap.i32(i32 %42)
  store i32 %43, ptr %40, align 1
  %44 = getelementptr inbounds nuw i8, ptr %1, i64 16
  %45 = getelementptr inbounds nuw i8, ptr %0, i64 24
  %46 = load i32, ptr %45, align 4, !tbaa !7
  %47 = tail call i32 @llvm.bswap.i32(i32 %46)
  store i32 %47, ptr %44, align 1
  tail call void @mbedtls_platform_zeroize(ptr noundef nonnull %0, i64 noundef 92) #12
  ret i32 0
}